target datalayout = "e-m:e-p270:32:32-p271:32:32-p272:64:64-i64:64-i128:128-f80:128-n8:16:32:64-S128"
target triple = "x86_64-pc-linux-gnu"

%struct.OSSL_TIME = type { i64 }
%struct.quic_channel_st = type { ptr, %struct.anon, %struct.anon.0, ptr, ptr, ptr, ptr, ptr, ptr, ptr, i64, %union.bio_addr_st, ptr, ptr, ptr, %struct.quic_txfc_st, %struct.quic_rxfc_st, [3 x %struct.quic_rxfc_st], %struct.quic_rxfc_st, %struct.quic_rxfc_st, %struct.quic_stream_map_st, %struct.ossl_statm_st, ptr, ptr, ptr, ptr, ptr, ptr, ptr, ptr, [3 x ptr], [3 x ptr], %struct.quic_conn_id_st, %struct.quic_conn_id_st, %struct.quic_conn_id_st, %struct.quic_conn_id_st, %struct.quic_conn_id_st, %struct.quic_conn_id_st, i64, i64, i64, i64, i64, i64, i64, i64, i64, i64, i8, i16, ptr, i64, i64, i64, i64, i64, i64, i64, i64, i64, i64, i64, i64, i64, %struct.quic_terminate_cause_st, %struct.OSSL_TIME, %struct.OSSL_TIME, %struct.OSSL_TIME, %struct.OSSL_TIME, %struct.OSSL_TIME, i64, i64, i64, ptr, ptr, i64, ptr }
%struct.anon = type { ptr, ptr }
%struct.anon.0 = type { ptr, ptr }
%union.bio_addr_st = type { %struct.sockaddr_in6, [84 x i8] }
%struct.sockaddr_in6 = type { i16, i16, i32, %struct.in6_addr, i32 }
%struct.in6_addr = type { %union.anon }
%union.anon = type { [4 x i32] }
%struct.quic_txfc_st = type { ptr, i64, i64, i8 }
%struct.quic_rxfc_st = type { i64, i64, i64, i64, i64, i64, i64, %struct.OSSL_TIME, ptr, ptr, ptr, i8, i8, i8, i8 }
%struct.quic_stream_map_st = type { ptr, %struct.quic_stream_list_node_st, %struct.quic_stream_list_node_st, %struct.quic_stream_list_node_st, i64, i64, i64, i64, i64, ptr, ptr, ptr, ptr, ptr, i32 }
%struct.quic_stream_list_node_st = type { ptr, ptr }
%struct.ossl_statm_st = type { %struct.OSSL_TIME, %struct.OSSL_TIME, %struct.OSSL_TIME, %struct.OSSL_TIME, i8 }
%struct.quic_conn_id_st = type { i8, [20 x i8] }
%struct.quic_terminate_cause_st = type { i64, i64, ptr, i64, i8 }

@.str.1 = private unnamed_addr constant [37 x i8] c"../openssl/ssl/quic/quic_rx_depack.c\00", align 1
@.str.29 = private unnamed_addr constant [35 x i8] c"internal error (stream count RXFC)\00", align 1
@__func__.depack_do_implicit_stream_create = private unnamed_addr constant [33 x i8] c"depack_do_implicit_stream_create\00", align 1
@.str.30 = private unnamed_addr constant [33 x i8] c"exceeded maximum allowed streams\00", align 1
@.str.31 = private unnamed_addr constant [35 x i8] c"internal error (stream allocation)\00", align 1
@.str.32 = private unnamed_addr constant [36 x i8] c"STREAM frame for nonexistent stream\00", align 1

; Function Attrs: nounwind uwtable
define internal i32 @depack_do_implicit_stream_create(ptr noundef %0, i64 noundef %1, i64 noundef %2, ptr noundef %3) #0 {
  %5 = alloca i32, align 4
  %6 = alloca ptr, align 8
  %7 = alloca i64, align 8
  %8 = alloca i64, align 8
  %9 = alloca ptr, align 8
  %10 = alloca ptr, align 8
  %11 = alloca i64, align 8
  %12 = alloca i64, align 8
  %13 = alloca ptr, align 8
  %14 = alloca ptr, align 8
  %15 = alloca ptr, align 8
  %16 = alloca i32, align 4
  %17 = alloca i32, align 4
  %18 = alloca i32, align 4
  %19 = alloca i64, align 8
  store ptr %0, ptr %6, align 8, !tbaa !3
  store i64 %1, ptr %7, align 8, !tbaa !17
  store i64 %2, ptr %8, align 8, !tbaa !17
  store ptr %3, ptr %9, align 8, !tbaa !116
  call void @llvm.lifetime.start.p0(i64 8, ptr %10) #7
  call void @llvm.lifetime.start.p0(i64 8, ptr %11) #7
  call void @llvm.lifetime.start.p0(i64 8, ptr %12) #7
  call void @llvm.lifetime.start.p0(i64 8, ptr %13) #7
  call void @llvm.lifetime.start.p0(i64 8, ptr %14) #7
  call void @llvm.lifetime.start.p0(i64 8, ptr %15) #7
  call void @llvm.lifetime.start.p0(i64 4, ptr %16) #7
  call void @llvm.lifetime.start.p0(i64 4, ptr %17) #7
  %20 = load ptr, ptr %6, align 8, !tbaa !3
  %21 = getelementptr inbounds nuw %struct.quic_channel_st, ptr %20, i32 0, i32 20
  %22 = load i64, ptr %7, align 8, !tbaa !17
  %23 = call ptr @ossl_quic_stream_map_get_by_id(ptr noundef %21, i64 noundef %22)
  store ptr %23, ptr %10, align 8, !tbaa !86
  %24 = load ptr, ptr %10, align 8, !tbaa !86
  %25 = icmp ne ptr %24, null
  br i1 %25, label %26, label %29

26:                                               ; preds = %4
  %27 = load ptr, ptr %10, align 8, !tbaa !86
  %28 = load ptr, ptr %9, align 8, !tbaa !116
  store ptr %27, ptr %28, align 8, !tbaa !86
  store i32 1, ptr %5, align 4
  store i32 1, ptr %18, align 4
  br label %140

29:                                               ; preds = %4
  %30 = load ptr, ptr %6, align 8, !tbaa !3
  %31 = getelementptr inbounds nuw %struct.quic_channel_st, ptr %30, i32 0, i32 72
  %32 = load i64, ptr %31, align 8
  %33 = lshr i64 %32, 25
  %34 = and i64 %33, 1
  %35 = trunc i64 %34 to i32
  %36 = icmp ne i32 %35, 0
  %37 = select i1 %36, i32 0, i32 1
  %38 = sext i32 %37 to i64
  store i64 %38, ptr %11, align 8, !tbaa !17
  %39 = load i64, ptr %7, align 8, !tbaa !17
  %40 = and i64 %39, 1
  %41 = load i64, ptr %11, align 8, !tbaa !17
  %42 = icmp eq i64 %40, %41
  %43 = zext i1 %42 to i32
  store i32 %43, ptr %17, align 4, !tbaa !18
  %44 = load i64, ptr %7, align 8, !tbaa !17
  %45 = and i64 %44, 2
  %46 = icmp eq i64 %45, 2
  %47 = zext i1 %46 to i32
  store i32 %47, ptr %16, align 4, !tbaa !18
  %48 = load i64, ptr %7, align 8, !tbaa !17
  %49 = lshr i64 %48, 2
  store i64 %49, ptr %12, align 8, !tbaa !17
  %50 = load i32, ptr %17, align 4, !tbaa !18
  %51 = icmp ne i32 %50, 0
  br i1 %51, label %52, label %119

52:                                               ; preds = %29
  %53 = load i32, ptr %16, align 4, !tbaa !18
  %54 = icmp ne i32 %53, 0
  br i1 %54, label %55, label %58

55:                                               ; preds = %52
  %56 = load ptr, ptr %6, align 8, !tbaa !3
  %57 = getelementptr inbounds nuw %struct.quic_channel_st, ptr %56, i32 0, i32 61
  br label %61

58:                                               ; preds = %52
  %59 = load ptr, ptr %6, align 8, !tbaa !3
  %60 = getelementptr inbounds nuw %struct.quic_channel_st, ptr %59, i32 0, i32 60
  br label %61

61:                                               ; preds = %58, %55
  %62 = phi ptr [ %57, %55 ], [ %60, %58 ]
  store ptr %62, ptr %14, align 8, !tbaa !98
  %63 = load i32, ptr %16, align 4, !tbaa !18
  %64 = icmp ne i32 %63, 0
  br i1 %64, label %65, label %68

65:                                               ; preds = %61
  %66 = load ptr, ptr %6, align 8, !tbaa !3
  %67 = getelementptr inbounds nuw %struct.quic_channel_st, ptr %66, i32 0, i32 19
  br label %71

68:                                               ; preds = %61
  %69 = load ptr, ptr %6, align 8, !tbaa !3
  %70 = getelementptr inbounds nuw %struct.quic_channel_st, ptr %69, i32 0, i32 18
  br label %71

71:                                               ; preds = %68, %65
  %72 = phi ptr [ %67, %65 ], [ %70, %68 ]
  store ptr %72, ptr %15, align 8, !tbaa !103
  %73 = load ptr, ptr %15, align 8, !tbaa !103
  %74 = load i64, ptr %12, align 8, !tbaa !17
  %75 = add i64 %74, 1
  %76 = call i32 @ossl_quic_rxfc_on_rx_stream_frame(ptr noundef %73, i64 noundef %75, i32 noundef 0)
  %77 = icmp ne i32 %76, 0
  br i1 %77, label %81, label %78

78:                                               ; preds = %71
  %79 = load ptr, ptr %6, align 8, !tbaa !3
  %80 = load i64, ptr %8, align 8, !tbaa !17
  call void @ossl_quic_channel_raise_protocol_error_loc(ptr noundef %79, i64 noundef 1, i64 noundef %80, ptr noundef @.str.29, ptr noundef null, ptr noundef @.str.1, i32 noundef 433, ptr noundef @__func__.depack_do_implicit_stream_create)
  store i32 0, ptr %5, align 4
  store i32 1, ptr %18, align 4
  br label %140

81:                                               ; preds = %71
  %82 = load ptr, ptr %15, align 8, !tbaa !103
  %83 = call i32 @ossl_quic_rxfc_get_error(ptr noundef %82, i32 noundef 0)
  %84 = icmp ne i32 %83, 0
  br i1 %84, label %85, label %88

85:                                               ; preds = %81
  %86 = load ptr, ptr %6, align 8, !tbaa !3
  %87 = load i64, ptr %8, align 8, !tbaa !17
  call void @ossl_quic_channel_raise_protocol_error_loc(ptr noundef %86, i64 noundef 4, i64 noundef %87, ptr noundef @.str.30, ptr noundef null, ptr noundef @.str.1, i32 noundef 440, ptr noundef @__func__.depack_do_implicit_stream_create)
  store i32 0, ptr %5, align 4
  store i32 1, ptr %18, align 4
  br label %140

88:                                               ; preds = %81
  br label %89

89:                                               ; preds = %115, %88
  %90 = load ptr, ptr %14, align 8, !tbaa !98
  %91 = load i64, ptr %90, align 8, !tbaa !17
  %92 = load i64, ptr %12, align 8, !tbaa !17
  %93 = icmp ule i64 %91, %92
  br i1 %93, label %94, label %116

94:                                               ; preds = %89
  call void @llvm.lifetime.start.p0(i64 8, ptr %19) #7
  %95 = load ptr, ptr %14, align 8, !tbaa !98
  %96 = load i64, ptr %95, align 8, !tbaa !17
  %97 = shl i64 %96, 2
  %98 = load i64, ptr %7, align 8, !tbaa !17
  %99 = and i64 %98, 3
  %100 = or i64 %97, %99
  store i64 %100, ptr %19, align 8, !tbaa !17
  %101 = load ptr, ptr %6, align 8, !tbaa !3
  %102 = load i64, ptr %19, align 8, !tbaa !17
  %103 = call ptr @ossl_quic_channel_new_stream_remote(ptr noundef %101, i64 noundef %102)
  store ptr %103, ptr %10, align 8, !tbaa !86
  %104 = load ptr, ptr %10, align 8, !tbaa !86
  %105 = icmp eq ptr %104, null
  br i1 %105, label %106, label %109

106:                                              ; preds = %94
  %107 = load ptr, ptr %6, align 8, !tbaa !3
  %108 = load i64, ptr %8, align 8, !tbaa !17
  call void @ossl_quic_channel_raise_protocol_error_loc(ptr noundef %107, i64 noundef 1, i64 noundef %108, ptr noundef @.str.31, ptr noundef null, ptr noundef @.str.1, i32 noundef 458, ptr noundef @__func__.depack_do_implicit_stream_create)
  store i32 0, ptr %5, align 4
  store i32 1, ptr %18, align 4
  br label %113

109:                                              ; preds = %94
  %110 = load ptr, ptr %14, align 8, !tbaa !98
  %111 = load i64, ptr %110, align 8, !tbaa !17
  %112 = add i64 %111, 1
  store i64 %112, ptr %110, align 8, !tbaa !17
  store i32 0, ptr %18, align 4
  br label %113

113:                                              ; preds = %109, %106
  call void @llvm.lifetime.end.p0(i64 8, ptr %19) #7
  %114 = load i32, ptr %18, align 4
  switch i32 %114, label %140 [
    i32 0, label %115
  ]

115:                                              ; preds = %113
  br label %89, !llvm.loop !118

116:                                              ; preds = %89
  %117 = load ptr, ptr %10, align 8, !tbaa !86
  %118 = load ptr, ptr %9, align 8, !tbaa !116
  store ptr %117, ptr %118, align 8, !tbaa !86
  br label %139

119:                                              ; preds = %29
  %120 = load i32, ptr %16, align 4, !tbaa !18
  %121 = icmp ne i32 %120, 0
  br i1 %121, label %122, label %125

122:                                              ; preds = %119
  %123 = load ptr, ptr %6, align 8, !tbaa !3
  %124 = getelementptr inbounds nuw %struct.quic_channel_st, ptr %123, i32 0, i32 59
  br label %128

125:                                              ; preds = %119
  %126 = load ptr, ptr %6, align 8, !tbaa !3
  %127 = getelementptr inbounds nuw %struct.quic_channel_st, ptr %126, i32 0, i32 58
  br label %128

128:                                              ; preds = %125, %122
  %129 = phi ptr [ %124, %122 ], [ %127, %125 ]
  store ptr %129, ptr %13, align 8, !tbaa !98
  %130 = load i64, ptr %12, align 8, !tbaa !17
  %131 = load ptr, ptr %13, align 8, !tbaa !98
  %132 = load i64, ptr %131, align 8, !tbaa !17
  %133 = icmp uge i64 %130, %132
  br i1 %133, label %134, label %137

134:                                              ; preds = %128
  %135 = load ptr, ptr %6, align 8, !tbaa !3
  %136 = load i64, ptr %8, align 8, !tbaa !17
  call void @ossl_quic_channel_raise_protocol_error_loc(ptr noundef %135, i64 noundef 5, i64 noundef %136, ptr noundef @.str.32, ptr noundef null, ptr noundef @.str.1, i32 noundef 481, ptr noundef @__func__.depack_do_implicit_stream_create)
  store i32 0, ptr %5, align 4
  store i32 1, ptr %18, align 4
  br label %140

137:                                              ; preds = %128
  %138 = load ptr, ptr %9, align 8, !tbaa !116
  store ptr null, ptr %138, align 8, !tbaa !86
  br label %139

139:                                              ; preds = %137, %116
  store i32 1, ptr %5, align 4
  store i32 1, ptr %18, align 4
  br label %140

140:                                              ; preds = %139, %134, %113, %85, %78, %26
  call void @llvm.lifetime.end.p0(i64 4, ptr %17) #7
  call void @llvm.lifetime.end.p0(i64 4, ptr %16) #7
  call void @llvm.lifetime.end.p0(i64 8, ptr %15) #7
  call void @llvm.lifetime.end.p0(i64 8, ptr %14) #7
  call void @llvm.lifetime.end.p0(i64 8, ptr %13) #7
  call void @llvm.lifetime.end.p0(i64 8, ptr %12) #7
  call void @llvm.lifetime.end.p0(i64 8, ptr %11) #7
  call void @llvm.lifetime.end.p0(i64 8, ptr %10) #7
  %141 = load i32, ptr %5, align 4
  ret i32 %141
}