; Function Attrs: nounwind uwtable
define internal fastcc range(i32 0, 2) i32 @depack_do_implicit_stream_create(ptr noundef nonnull %0, i64 noundef %1, i64 noundef %2, ptr noundef nonnull writeonly captures(none) %3) unnamed_addr #0 {
  %5 = getelementptr inbounds nuw i8, ptr %0, i64 848
  %6 = tail call ptr @ossl_quic_stream_map_get_by_id(ptr noundef nonnull %5, i64 noundef %1) #3
  %.not = icmp eq ptr %6, null
  br i1 %.not, label %8, label %7

7:                                                ; preds = %4
  store ptr %6, ptr %3, align 8, !tbaa !74
  br label %38

8:                                                ; preds = %4
  %9 = getelementptr inbounds nuw i8, ptr %0, i64 1568
  %10 = load i64, ptr %9, align 8
  %11 = lshr i64 %10, 25
  %.lobit51 = xor i64 %11, %1
  %12 = and i64 %.lobit51, 1
  %.not52 = icmp eq i64 %12, 0
  %13 = and i64 %1, 2
  %.not53 = icmp eq i64 %13, 0
  %14 = lshr i64 %1, 2
  br i1 %.not52, label %34, label %15

15:                                               ; preds = %8
  %.v55 = select i1 %.not53, i64 1440, i64 1448
  %16 = getelementptr inbounds nuw i8, ptr %0, i64 %.v55
  %.v56 = select i1 %.not53, i64 656, i64 752
  %17 = getelementptr inbounds nuw i8, ptr %0, i64 %.v56
  %18 = add nuw nsw i64 %14, 1
  %19 = tail call i32 @ossl_quic_rxfc_on_rx_stream_frame(ptr noundef nonnull %17, i64 noundef %18, i32 noundef 0) #3
  %.not57 = icmp eq i32 %19, 0
  br i1 %.not57, label %20, label %21

20:                                               ; preds = %15
  tail call void @ossl_quic_channel_raise_protocol_error_loc(ptr noundef nonnull %0, i64 noundef 1, i64 noundef %2, ptr noundef nonnull @.str.29, ptr noundef null, ptr noundef nonnull @.str.1, i32 noundef 433, ptr noundef nonnull @__func__.depack_do_implicit_stream_create) #3
  br label %38

21:                                               ; preds = %15
  %22 = tail call i32 @ossl_quic_rxfc_get_error(ptr noundef nonnull %17, i32 noundef 0) #3
  %.not58 = icmp eq i32 %22, 0
  br i1 %.not58, label %.preheader, label %25

.preheader:                                       ; preds = %21
  %23 = load i64, ptr %16, align 8, !tbaa !17
  %.not5962 = icmp ugt i64 %23, %14
  br i1 %.not5962, label %.loopexit, label %.lr.ph

.lr.ph:                                           ; preds = %.preheader
  %24 = and i64 %1, 3
  br label %26

25:                                               ; preds = %21
  tail call void @ossl_quic_channel_raise_protocol_error_loc(ptr noundef nonnull %0, i64 noundef 4, i64 noundef %2, ptr noundef nonnull @.str.30, ptr noundef null, ptr noundef nonnull @.str.1, i32 noundef 440, ptr noundef nonnull @__func__.depack_do_implicit_stream_create) #3
  br label %38

26:                                               ; preds = %.lr.ph, %31
  %27 = phi i64 [ %23, %.lr.ph ], [ %33, %31 ]
  %28 = shl nuw i64 %27, 2
  %29 = or disjoint i64 %28, %24
  %30 = tail call ptr @ossl_quic_channel_new_stream_remote(ptr noundef nonnull %0, i64 noundef %29) #3
  %.not60 = icmp eq ptr %30, null
  br i1 %.not60, label %.thread, label %31

.thread:                                          ; preds = %26
  tail call void @ossl_quic_channel_raise_protocol_error_loc(ptr noundef nonnull %0, i64 noundef 1, i64 noundef %2, ptr noundef nonnull @.str.31, ptr noundef null, ptr noundef nonnull @.str.1, i32 noundef 458, ptr noundef nonnull @__func__.depack_do_implicit_stream_create) #3
  br label %38

31:                                               ; preds = %26
  %32 = load i64, ptr %16, align 8, !tbaa !17
  %33 = add i64 %32, 1
  store i64 %33, ptr %16, align 8, !tbaa !17
  %.not59 = icmp ugt i64 %33, %14
  br i1 %.not59, label %.loopexit, label %26, !llvm.loop !107

34:                                               ; preds = %8
  %.v = select i1 %.not53, i64 1424, i64 1432
  %35 = getelementptr inbounds nuw i8, ptr %0, i64 %.v
  %36 = load i64, ptr %35, align 8, !tbaa !17
  %.not54 = icmp ult i64 %14, %36
  br i1 %.not54, label %.loopexit, label %37

37:                                               ; preds = %34
  tail call void @ossl_quic_channel_raise_protocol_error_loc(ptr noundef nonnull %0, i64 noundef 5, i64 noundef %2, ptr noundef nonnull @.str.32, ptr noundef null, ptr noundef nonnull @.str.1, i32 noundef 481, ptr noundef nonnull @__func__.depack_do_implicit_stream_create) #3
  br label %38

.loopexit:                                        ; preds = %31, %.preheader, %34
  %storemerge = phi ptr [ null, %34 ], [ null, %.preheader ], [ %30, %31 ]
  store ptr %storemerge, ptr %3, align 8, !tbaa !74
  br label %38

38:                                               ; preds = %.thread, %.loopexit, %37, %25, %20, %7
  %.0 = phi i32 [ 1, %7 ], [ 0, %25 ], [ 1, %.loopexit ], [ 0, %20 ], [ 0, %37 ], [ 0, %.thread ]
  ret i32 %.0
}